; Function Attrs: mustprogress nofree nounwind willreturn memory(read, inaccessiblemem: none) uwtable
define noundef range(i32 -1, 2) i32 @_ZNK6icu_7712CollationKey9compareToERKS0_R10UErrorCode(ptr noundef nonnull readonly align 8 dereferenceable(48) %0, ptr noundef nonnull readonly align 8 dereferenceable(48) %1, ptr noundef nonnull readonly align 4 captures(none) dereferenceable(4) %2) local_unnamed_addr #11 align 2 {
  %4 = load i32, ptr %2, align 4, !tbaa !13
  %5 = icmp sgt i32 %4, 0
  br i1 %5, label %.thread, label %6

6:                                                ; preds = %3
  %7 = getelementptr inbounds nuw i8, ptr %0, i64 8
  %8 = load i32, ptr %7, align 8, !tbaa !6
  %9 = getelementptr inbounds nuw i8, ptr %0, i64 16
  %10 = load ptr, ptr %9, align 8
  %11 = icmp slt i32 %8, 0
  %12 = select i1 %11, ptr %10, ptr %9
  %13 = getelementptr inbounds nuw i8, ptr %1, i64 8
  %14 = load i32, ptr %13, align 8, !tbaa !6
  %15 = getelementptr inbounds nuw i8, ptr %1, i64 16
  %16 = load ptr, ptr %15, align 8
  %17 = icmp slt i32 %14, 0
  %18 = select i1 %17, ptr %16, ptr %15
  %19 = icmp eq ptr %12, %18
  br i1 %19, label %.thread, label %20

20:                                               ; preds = %6
  %21 = and i32 %8, 2147483647
  %22 = and i32 %14, 2147483647
  %.021 = tail call i32 @llvm.ucmp.i32.i32(i32 %21, i32 %22)
  %.020 = tail call i32 @llvm.umin.i32(i32 %21, i32 %22)
  %.not = icmp eq i32 %.020, 0
  br i1 %.not, label %28, label %23

23:                                               ; preds = %20
  %24 = zext nneg i32 %.020 to i64
  %25 = tail call i32 @memcmp(ptr noundef %12, ptr noundef %18, i64 noundef %24) #18
  %26 = icmp sgt i32 %25, 0
  br i1 %26, label %.thread, label %27

27:                                               ; preds = %23
  %.not33 = icmp eq i32 %25, 0
  br i1 %.not33, label %28, label %.thread

28:                                               ; preds = %27, %20
  br label %.thread

.thread:                                          ; preds = %23, %3, %6, %27, %28
  %.3 = phi i32 [ 0, %6 ], [ %.021, %28 ], [ -1, %27 ], [ 0, %3 ], [ 1, %23 ]
  ret i32 %.3
}